; Function Attrs: mustprogress uwtable
define noundef zeroext i1 @_ZN3zmq6dist_t5writeEPNS_6pipe_tEPNS_5msg_tE(ptr noundef nonnull align 8 captures(none) dereferenceable(49) %0, ptr noundef nonnull %1, ptr noundef %2) local_unnamed_addr #6 align 2 {
  %4 = tail call noundef zeroext i1 @_ZN3zmq6pipe_t5writeEPKNS_5msg_tE(ptr noundef nonnull align 8 dereferenceable(328) %1, ptr noundef %2)
  br i1 %4, label %50, label %5

5:                                                ; preds = %3
  %6 = getelementptr inbounds nuw i8, ptr %1, i64 48
  %7 = load i32, ptr %6, align 8, !tbaa !25
  %8 = sext i32 %7 to i64
  %9 = getelementptr inbounds nuw i8, ptr %0, i64 24
  %10 = load i64, ptr %9, align 8, !tbaa !33
  %11 = add i64 %10, -1
  %12 = load ptr, ptr %0, align 8, !tbaa !12
  %13 = getelementptr inbounds nuw ptr, ptr %12, i64 %8
  %14 = load ptr, ptr %13, align 8, !tbaa !29
  %.not.i = icmp eq ptr %14, null
  br i1 %.not.i, label %18, label %15

15:                                               ; preds = %5
  %16 = trunc i64 %11 to i32
  %17 = getelementptr inbounds nuw i8, ptr %14, i64 48
  store i32 %16, ptr %17, align 8, !tbaa !25
  br label %18

18:                                               ; preds = %15, %5
  %19 = getelementptr inbounds nuw ptr, ptr %12, i64 %11
  %20 = load ptr, ptr %19, align 8, !tbaa !29
  %.not8.i = icmp eq ptr %20, null
  br i1 %.not8.i, label %_ZN3zmq7array_tINS_6pipe_tELi2EE4swapEmm.exit, label %21

21:                                               ; preds = %18
  %22 = getelementptr inbounds nuw i8, ptr %20, i64 48
  store i32 %7, ptr %22, align 8, !tbaa !25
  br label %_ZN3zmq7array_tINS_6pipe_tELi2EE4swapEmm.exit

_ZN3zmq7array_tINS_6pipe_tELi2EE4swapEmm.exit:    ; preds = %18, %21
  store ptr %20, ptr %13, align 8, !tbaa !29
  store ptr %14, ptr %19, align 8, !tbaa !29
  store i64 %11, ptr %9, align 8, !tbaa !33
  %23 = load i32, ptr %6, align 8, !tbaa !25
  %24 = sext i32 %23 to i64
  %25 = getelementptr inbounds nuw i8, ptr %0, i64 32
  %26 = load i64, ptr %25, align 8, !tbaa !32
  %27 = add i64 %26, -1
  %28 = getelementptr inbounds nuw ptr, ptr %12, i64 %24
  %29 = load ptr, ptr %28, align 8, !tbaa !29
  %.not.i8 = icmp eq ptr %29, null
  br i1 %.not.i8, label %33, label %30

30:                                               ; preds = %_ZN3zmq7array_tINS_6pipe_tELi2EE4swapEmm.exit
  %31 = trunc i64 %27 to i32
  %32 = getelementptr inbounds nuw i8, ptr %29, i64 48
  store i32 %31, ptr %32, align 8, !tbaa !25
  br label %33

33:                                               ; preds = %30, %_ZN3zmq7array_tINS_6pipe_tELi2EE4swapEmm.exit
  %34 = getelementptr inbounds nuw ptr, ptr %12, i64 %27
  %35 = load ptr, ptr %34, align 8, !tbaa !29
  %.not8.i9 = icmp eq ptr %35, null
  br i1 %.not8.i9, label %_ZN3zmq7array_tINS_6pipe_tELi2EE4swapEmm.exit10, label %36

36:                                               ; preds = %33
  %37 = getelementptr inbounds nuw i8, ptr %35, i64 48
  store i32 %23, ptr %37, align 8, !tbaa !25
  br label %_ZN3zmq7array_tINS_6pipe_tELi2EE4swapEmm.exit10

_ZN3zmq7array_tINS_6pipe_tELi2EE4swapEmm.exit10:  ; preds = %33, %36
  store ptr %35, ptr %28, align 8, !tbaa !29
  store ptr %29, ptr %34, align 8, !tbaa !29
  store i64 %27, ptr %25, align 8, !tbaa !32
  %38 = getelementptr inbounds nuw i8, ptr %0, i64 40
  %39 = load i64, ptr %38, align 8, !tbaa !31
  %40 = add i64 %39, -1
  br i1 %.not.i8, label %44, label %41

41:                                               ; preds = %_ZN3zmq7array_tINS_6pipe_tELi2EE4swapEmm.exit10
  %42 = trunc i64 %40 to i32
  %43 = getelementptr inbounds nuw i8, ptr %29, i64 48
  store i32 %42, ptr %43, align 8, !tbaa !25
  br label %44

44:                                               ; preds = %41, %_ZN3zmq7array_tINS_6pipe_tELi2EE4swapEmm.exit10
  %45 = getelementptr inbounds nuw ptr, ptr %12, i64 %40
  %46 = load ptr, ptr %45, align 8, !tbaa !29
  %.not8.i12 = icmp eq ptr %46, null
  br i1 %.not8.i12, label %_ZN3zmq7array_tINS_6pipe_tELi2EE4swapEmm.exit13, label %47

47:                                               ; preds = %44
  %48 = trunc i64 %27 to i32
  %49 = getelementptr inbounds nuw i8, ptr %46, i64 48
  store i32 %48, ptr %49, align 8, !tbaa !25
  br label %_ZN3zmq7array_tINS_6pipe_tELi2EE4swapEmm.exit13

_ZN3zmq7array_tINS_6pipe_tELi2EE4swapEmm.exit13:  ; preds = %44, %47
  store ptr %46, ptr %34, align 8, !tbaa !29
  store ptr %29, ptr %45, align 8, !tbaa !29
  store i64 %40, ptr %38, align 8, !tbaa !31
  br label %54

50:                                               ; preds = %3
  %51 = tail call noundef zeroext i8 @_ZNK3zmq5msg_t5flagsEv(ptr noundef nonnull align 8 dereferenceable(64) %2)
  %52 = and i8 %51, 1
  %.not = icmp eq i8 %52, 0
  br i1 %.not, label %53, label %54

53:                                               ; preds = %50
  tail call void @_ZN3zmq6pipe_t5flushEv(ptr noundef nonnull align 8 dereferenceable(328) %1)
  br label %54

54:                                               ; preds = %50, %53, %_ZN3zmq7array_tINS_6pipe_tELi2EE4swapEmm.exit13
  ret i1 %4
}